target datalayout = "e-m:e-p270:32:32-p271:32:32-p272:64:64-i64:64-i128:128-f80:128-n8:16:32:64-S128"
target triple = "x86_64-pc-linux-gnu"

%struct.expert_field = type { i32, i32 }

@hf_hdr_name_value = internal global i32 0, align 4
@ei_wsp_oversized_uintvar = internal global %struct.expert_field zeroinitializer, align 4
@ei_wsp_header_invalid_value = internal global %struct.expert_field zeroinitializer, align 4
@hf_hdr_x_wap_security = internal global i32 0, align 4
@ett_x_wap_security = internal global i32 0, align 4
@.str.1176 = private unnamed_addr constant [21 x i8] c"X-wap-security-value\00", align 1
@.str.1177 = private unnamed_addr constant [18 x i8] c"close-subordinate\00", align 1

; Function Attrs: null_pointer_is_valid sspstrong uwtable
define internal i32 @wkh_x_wap_security(ptr noundef %0, ptr noundef %1, i32 noundef %2, ptr noundef %3) #1 {
  %5 = alloca ptr, align 8
  %6 = alloca ptr, align 8
  %7 = alloca i32, align 4
  %8 = alloca ptr, align 8
  %9 = alloca i8, align 1
  %10 = alloca ptr, align 8
  %11 = alloca ptr, align 8
  %12 = alloca i32, align 4
  %13 = alloca i8, align 1
  %14 = alloca i32, align 4
  %15 = alloca i32, align 4
  %16 = alloca i32, align 4
  store ptr %0, ptr %5, align 8
  store ptr %1, ptr %6, align 8
  store i32 %2, ptr %7, align 4
  store ptr %3, ptr %8, align 8
  call void @llvm.lifetime.start.p0(i64 1, ptr %9) #8
  store i8 0, ptr %9, align 1
  call void @llvm.lifetime.start.p0(i64 8, ptr %10) #8
  call void @llvm.lifetime.start.p0(i64 8, ptr %11) #8
  call void @llvm.lifetime.start.p0(i64 4, ptr %12) #8
  %17 = load i32, ptr %7, align 4
  %18 = add i32 %17, 1
  store i32 %18, ptr %12, align 4
  call void @llvm.lifetime.start.p0(i64 1, ptr %13) #8
  %19 = load ptr, ptr %6, align 8
  %20 = load i32, ptr %12, align 4
  %21 = call zeroext i8 @tvb_get_uint8(ptr noundef %19, i32 noundef %20)
  store i8 %21, ptr %13, align 1
  call void @llvm.lifetime.start.p0(i64 4, ptr %14) #8
  %22 = load i32, ptr %12, align 4
  store i32 %22, ptr %14, align 4
  call void @llvm.lifetime.start.p0(i64 4, ptr %15) #8
  call void @llvm.lifetime.start.p0(i64 4, ptr %16) #8
  %23 = load ptr, ptr %5, align 8
  %24 = load ptr, ptr %6, align 8
  %25 = load i32, ptr %7, align 4
  %26 = load i32, ptr %14, align 4
  %27 = load i32, ptr %7, align 4
  %28 = sub i32 %26, %27
  %29 = load i32, ptr @ett_x_wap_security, align 4
  %30 = call ptr @proto_tree_add_subtree(ptr noundef %23, ptr noundef %24, i32 noundef %25, i32 noundef %28, i32 noundef %29, ptr noundef %11, ptr noundef @.str.1176)
  store ptr %30, ptr %10, align 8
  %31 = load ptr, ptr %10, align 8
  %32 = load i32, ptr @hf_hdr_name_value, align 4
  %33 = load ptr, ptr %6, align 8
  %34 = load i32, ptr %7, align 4
  %35 = call ptr @proto_tree_add_item(ptr noundef %31, i32 noundef %32, ptr noundef %33, i32 noundef %34, i32 noundef 1, i32 noundef 0)
  %36 = load i8, ptr %13, align 1
  %37 = zext i8 %36 to i32
  %38 = and i32 %37, 128
  %39 = icmp ne i32 %38, 0
  br i1 %39, label %40, label %56

40:                                               ; preds = %4
  %41 = load i32, ptr %14, align 4
  %42 = add i32 %41, 1
  store i32 %42, ptr %14, align 4
  %43 = load i8, ptr %13, align 1
  %44 = zext i8 %43 to i32
  %45 = icmp eq i32 %44, 128
  br i1 %45, label %46, label %55

46:                                               ; preds = %40
  %47 = load ptr, ptr %5, align 8
  %48 = load i32, ptr @hf_hdr_x_wap_security, align 4
  %49 = load ptr, ptr %6, align 8
  %50 = load i32, ptr %7, align 4
  %51 = load i32, ptr %14, align 4
  %52 = load i32, ptr %7, align 4
  %53 = sub i32 %51, %52
  %54 = call ptr @proto_tree_add_string(ptr noundef %47, i32 noundef %48, ptr noundef %49, i32 noundef %50, i32 noundef %53, ptr noundef @.str.1177)
  store i8 1, ptr %9, align 1
  br label %55

55:                                               ; preds = %46, %40
  br label %96

56:                                               ; preds = %4
  %57 = load i8, ptr %13, align 1
  %58 = zext i8 %57 to i32
  %59 = icmp eq i32 %58, 0
  br i1 %59, label %64, label %60

60:                                               ; preds = %56
  %61 = load i8, ptr %13, align 1
  %62 = zext i8 %61 to i32
  %63 = icmp sge i32 %62, 32
  br i1 %63, label %64, label %72

64:                                               ; preds = %60, %56
  %65 = call ptr @wmem_packet_scope()
  %66 = load ptr, ptr %6, align 8
  %67 = load i32, ptr %12, align 4
  %68 = call ptr @tvb_get_stringz_enc(ptr noundef %65, ptr noundef %66, i32 noundef %67, ptr noundef %15, i32 noundef 0)
  %69 = load i32, ptr %12, align 4
  %70 = load i32, ptr %15, align 4
  %71 = add i32 %69, %70
  store i32 %71, ptr %14, align 4
  br label %95

72:                                               ; preds = %60
  %73 = load i8, ptr %13, align 1
  %74 = zext i8 %73 to i32
  %75 = icmp eq i32 %74, 31
  br i1 %75, label %76, label %84

76:                                               ; preds = %72
  %77 = load ptr, ptr %6, align 8
  %78 = load i32, ptr %12, align 4
  %79 = add i32 %78, 1
  %80 = load ptr, ptr %8, align 8
  %81 = call i32 @tvb_get_uintvar(ptr noundef %77, i32 noundef %79, ptr noundef %16, ptr noundef %80, ptr noundef @ei_wsp_oversized_uintvar)
  store i32 %81, ptr %15, align 4
  %82 = load i32, ptr %16, align 4
  %83 = add i32 %82, 1
  store i32 %83, ptr %16, align 4
  br label %89

84:                                               ; preds = %72
  %85 = load ptr, ptr %6, align 8
  %86 = load i32, ptr %14, align 4
  %87 = call zeroext i8 @tvb_get_uint8(ptr noundef %85, i32 noundef %86)
  %88 = zext i8 %87 to i32
  store i32 %88, ptr %15, align 4
  store i32 1, ptr %16, align 4
  br label %89

89:                                               ; preds = %84, %76
  %90 = load i32, ptr %16, align 4
  %91 = load i32, ptr %15, align 4
  %92 = add i32 %90, %91
  %93 = load i32, ptr %14, align 4
  %94 = add i32 %93, %92
  store i32 %94, ptr %14, align 4
  br label %95

95:                                               ; preds = %89, %64
  br label %96

96:                                               ; preds = %95, %55
  %97 = load i8, ptr %9, align 1, !range !6, !noundef !7
  %98 = trunc i8 %97 to i1
  br i1 %98, label %103, label %99

99:                                               ; preds = %96
  %100 = load ptr, ptr %8, align 8
  %101 = load ptr, ptr %11, align 8
  %102 = call ptr @expert_add_info(ptr noundef %100, ptr noundef %101, ptr noundef @ei_wsp_header_invalid_value)
  br label %103

103:                                              ; preds = %99, %96
  %104 = load i32, ptr %14, align 4
  call void @llvm.lifetime.end.p0(i64 4, ptr %16) #8
  call void @llvm.lifetime.end.p0(i64 4, ptr %15) #8
  call void @llvm.lifetime.end.p0(i64 4, ptr %14) #8
  call void @llvm.lifetime.end.p0(i64 1, ptr %13) #8
  call void @llvm.lifetime.end.p0(i64 4, ptr %12) #8
  call void @llvm.lifetime.end.p0(i64 8, ptr %11) #8
  call void @llvm.lifetime.end.p0(i64 8, ptr %10) #8
  call void @llvm.lifetime.end.p0(i64 1, ptr %9) #8
  ret i32 %104
}