; Function Attrs: null_pointer_is_valid sspstrong uwtable
define internal i32 @wkh_x_wap_security(ptr noundef %0, ptr noundef %1, i32 noundef %2, ptr noundef %3) #1 {
  %5 = alloca ptr, align 8
  %6 = alloca i32, align 4
  %7 = alloca i32, align 4
  call void @llvm.lifetime.start.p0(i64 8, ptr nonnull %5) #5
  %8 = add i32 %2, 1
  %9 = tail call zeroext i8 @tvb_get_uint8(ptr noundef %1, i32 noundef %8)
  call void @llvm.lifetime.start.p0(i64 4, ptr nonnull %6) #5
  call void @llvm.lifetime.start.p0(i64 4, ptr nonnull %7) #5
  %10 = load i32, ptr @ett_x_wap_security, align 4
  %11 = call ptr @proto_tree_add_subtree(ptr noundef %0, ptr noundef %1, i32 noundef %2, i32 noundef 1, i32 noundef %10, ptr noundef nonnull %5, ptr noundef nonnull @.str.1176)
  %12 = load i32, ptr @hf_hdr_name_value, align 4
  %13 = call ptr @proto_tree_add_item(ptr noundef %11, i32 noundef %12, ptr noundef %1, i32 noundef %2, i32 noundef 1, i32 noundef 0)
  %.not = icmp sgt i8 %9, -1
  br i1 %.not, label %17, label %14

14:                                               ; preds = %4
  %15 = add i32 %2, 2
  %16 = icmp eq i8 %9, -128
  br i1 %16, label %37, label %40

17:                                               ; preds = %4
  %18 = add nsw i8 %9, -32
  %or.cond = icmp ult i8 %18, -31
  br i1 %or.cond, label %19, label %24

19:                                               ; preds = %17
  %20 = call ptr @wmem_packet_scope()
  %21 = call ptr @tvb_get_stringz_enc(ptr noundef %20, ptr noundef %1, i32 noundef %8, ptr noundef nonnull %6, i32 noundef 0)
  %22 = load i32, ptr %6, align 4
  %23 = add i32 %22, %8
  br label %40

24:                                               ; preds = %17
  %25 = icmp eq i8 %9, 31
  br i1 %25, label %26, label %31

26:                                               ; preds = %24
  %27 = add i32 %2, 2
  %28 = call i32 @tvb_get_uintvar(ptr noundef %1, i32 noundef %27, ptr noundef nonnull %7, ptr noundef %3, ptr noundef nonnull @ei_wsp_oversized_uintvar)
  %29 = load i32, ptr %7, align 4
  %30 = add i32 %29, 1
  br label %34

31:                                               ; preds = %24
  %32 = call zeroext i8 @tvb_get_uint8(ptr noundef %1, i32 noundef %8)
  %33 = zext i8 %32 to i32
  br label %34

34:                                               ; preds = %31, %26
  %.sink = phi i32 [ %28, %26 ], [ %33, %31 ]
  %storemerge = phi i32 [ %30, %26 ], [ 1, %31 ]
  store i32 %.sink, ptr %6, align 4
  store i32 %storemerge, ptr %7, align 4
  %35 = add i32 %storemerge, %8
  %36 = add i32 %35, %.sink
  br label %40

37:                                               ; preds = %14
  %38 = load i32, ptr @hf_hdr_x_wap_security, align 4
  %39 = call ptr @proto_tree_add_string(ptr noundef %0, i32 noundef %38, ptr noundef %1, i32 noundef %2, i32 noundef 2, ptr noundef nonnull @.str.1177)
  br label %43

40:                                               ; preds = %14, %19, %34
  %.0.ph = phi i32 [ %36, %34 ], [ %23, %19 ], [ %15, %14 ]
  %41 = load ptr, ptr %5, align 8
  %42 = call ptr @expert_add_info(ptr noundef %3, ptr noundef %41, ptr noundef nonnull @ei_wsp_header_invalid_value)
  br label %43

43:                                               ; preds = %37, %40
  %.041 = phi i32 [ %.0.ph, %40 ], [ %15, %37 ]
  call void @llvm.lifetime.end.p0(i64 4, ptr nonnull %7) #5
  call void @llvm.lifetime.end.p0(i64 4, ptr nonnull %6) #5
  call void @llvm.lifetime.end.p0(i64 8, ptr nonnull %5) #5
  ret i32 %.041
}